; ModuleID = '14/331.c'
source_filename = "14/331.c"
target datalayout = "e-m:e-p270:32:32-p271:32:32-p272:64:64-i64:64-f80:128-n8:16:32:64-S128"
target triple = "x86_64-pc-linux-gnu"

@.str = private unnamed_addr constant [3 x i8] c"%d\00", align 1
@.str.1 = private unnamed_addr constant [9 x i8] c"%d %d %d\00", align 1
@.str.2 = private unnamed_addr constant [7 x i8] c"%d %d\0A\00", align 1

; Function Attrs: noinline nounwind uwtable
define dso_local i32 @pfCompare(i8* %0, i8* %1) #0 {
  %3 = alloca i8*, align 8
  %4 = alloca i8*, align 8
  %5 = alloca i32*, align 8
  %6 = alloca i32*, align 8
  store i8* %0, i8** %3, align 8
  store i8* %1, i8** %4, align 8
  %7 = load i8*, i8** %3, align 8
  %8 = bitcast i8* %7 to i32*
  store i32* %8, i32** %5, align 8
  %9 = load i8*, i8** %4, align 8
  %10 = bitcast i8* %9 to i32*
  store i32* %10, i32** %6, align 8
  %11 = load i32*, i32** %6, align 8
  %12 = load i32, i32* %11, align 4
  %13 = load i32*, i32** %5, align 8
  %14 = load i32, i32* %13, align 4
  %15 = sub nsw i32 %12, %14
  ret i32 %15
}

; Function Attrs: noinline nounwind uwtable
define dso_local i32 @main() #0 {
  %1 = alloca i32, align 4
  %2 = alloca i32, align 4
  %3 = alloca i8*, align 8
  %4 = alloca i64, align 8
  %5 = alloca i64, align 8
  %6 = alloca i64, align 8
  %7 = alloca i64, align 8
  %8 = alloca i64, align 8
  %9 = alloca i32, align 4
  %10 = alloca i32, align 4
  store i32 0, i32* %1, align 4
  %11 = call i32 (i8*, ...) @__isoc99_scanf(i8* getelementptr inbounds ([3 x i8], [3 x i8]* @.str, i64 0, i64 0), i32* %2)
  %12 = load i32, i32* %2, align 4
  %13 = zext i32 %12 to i64
  %14 = call i8* @llvm.stacksave()
  store i8* %14, i8** %3, align 8
  %15 = alloca i32, i64 %13, align 16
  store i64 %13, i64* %4, align 8
  %16 = load i32, i32* %2, align 4
  %17 = zext i32 %16 to i64
  %18 = alloca i32, i64 %17, align 16
  store i64 %17, i64* %5, align 8
  %19 = load i32, i32* %2, align 4
  %20 = zext i32 %19 to i64
  %21 = alloca i32, i64 %20, align 16
  store i64 %20, i64* %6, align 8
  %22 = load i32, i32* %2, align 4
  %23 = zext i32 %22 to i64
  %24 = alloca i32, i64 %23, align 16
  store i64 %23, i64* %7, align 8
  %25 = load i32, i32* %2, align 4
  %26 = zext i32 %25 to i64
  %27 = alloca i32, i64 %26, align 16
  store i64 %26, i64* %8, align 8
  store i32 0, i32* %9, align 4
  br label %28

28:                                               ; preds = %62, %0
  %29 = load i32, i32* %9, align 4
  %30 = load i32, i32* %2, align 4
  %31 = icmp slt i32 %29, %30
  br i1 %31, label %32, label %65

32:                                               ; preds = %28
  %33 = load i32, i32* %9, align 4
  %34 = sext i32 %33 to i64
  %35 = getelementptr inbounds i32, i32* %15, i64 %34
  %36 = load i32, i32* %9, align 4
  %37 = sext i32 %36 to i64
  %38 = getelementptr inbounds i32, i32* %18, i64 %37
  %39 = load i32, i32* %9, align 4
  %40 = sext i32 %39 to i64
  %41 = getelementptr inbounds i32, i32* %21, i64 %40
  %42 = call i32 (i8*, ...) @__isoc99_scanf(i8* getelementptr inbounds ([9 x i8], [9 x i8]* @.str.1, i64 0, i64 0), i32* %35, i32* %38, i32* %41)
  %43 = load i32, i32* %9, align 4
  %44 = sext i32 %43 to i64
  %45 = getelementptr inbounds i32, i32* %18, i64 %44
  %46 = load i32, i32* %45, align 4
  %47 = load i32, i32* %9, align 4
  %48 = sext i32 %47 to i64
  %49 = getelementptr inbounds i32, i32* %21, i64 %48
  %50 = load i32, i32* %49, align 4
  %51 = add nsw i32 %46, %50
  %52 = load i32, i32* %9, align 4
  %53 = sext i32 %52 to i64
  %54 = getelementptr inbounds i32, i32* %24, i64 %53
  store i32 %51, i32* %54, align 4
  %55 = load i32, i32* %9, align 4
  %56 = sext i32 %55 to i64
  %57 = getelementptr inbounds i32, i32* %24, i64 %56
  %58 = load i32, i32* %57, align 4
  %59 = load i32, i32* %9, align 4
  %60 = sext i32 %59 to i64
  %61 = getelementptr inbounds i32, i32* %27, i64 %60
  store i32 %58, i32* %61, align 4
  br label %62

62:                                               ; preds = %32
  %63 = load i32, i32* %9, align 4
  %64 = add nsw i32 %63, 1
  store i32 %64, i32* %9, align 4
  br label %28

65:                                               ; preds = %28
  %66 = bitcast i32* %27 to i8*
  %67 = load i32, i32* %2, align 4
  %68 = sext i32 %67 to i64
  call void @qsort(i8* %66, i64 %68, i64 4, i32 (i8*, i8*)* @pfCompare)
  store i32 0, i32* %10, align 4
  br label %69

69:                                               ; preds = %105, %65
  %70 = load i32, i32* %10, align 4
  %71 = icmp slt i32 %70, 3
  br i1 %71, label %72, label %108

72:                                               ; preds = %69
  store i32 0, i32* %9, align 4
  br label %73

73:                                               ; preds = %101, %72
  %74 = load i32, i32* %9, align 4
  %75 = load i32, i32* %2, align 4
  %76 = icmp slt i32 %74, %75
  br i1 %76, label %77, label %104

77:                                               ; preds = %73
  %78 = load i32, i32* %9, align 4
  %79 = sext i32 %78 to i64
  %80 = getelementptr inbounds i32, i32* %24, i64 %79
  %81 = load i32, i32* %80, align 4
  %82 = load i32, i32* %10, align 4
  %83 = sext i32 %82 to i64
  %84 = getelementptr inbounds i32, i32* %27, i64 %83
  %85 = load i32, i32* %84, align 4
  %86 = icmp eq i32 %81, %85
  br i1 %86, label %87, label %100

87:                                               ; preds = %77
  %88 = load i32, i32* %9, align 4
  %89 = sext i32 %88 to i64
  %90 = getelementptr inbounds i32, i32* %15, i64 %89
  %91 = load i32, i32* %90, align 4
  %92 = load i32, i32* %9, align 4
  %93 = sext i32 %92 to i64
  %94 = getelementptr inbounds i32, i32* %24, i64 %93
  %95 = load i32, i32* %94, align 4
  %96 = call i32 (i8*, ...) @printf(i8* getelementptr inbounds ([7 x i8], [7 x i8]* @.str.2, i64 0, i64 0), i32 %91, i32 %95)
  %97 = load i32, i32* %9, align 4
  %98 = sext i32 %97 to i64
  %99 = getelementptr inbounds i32, i32* %24, i64 %98
  store i32 0, i32* %99, align 4
  br label %104

100:                                              ; preds = %77
  br label %101

101:                                              ; preds = %100
  %102 = load i32, i32* %9, align 4
  %103 = add nsw i32 %102, 1
  store i32 %103, i32* %9, align 4
  br label %73

104:                                              ; preds = %87, %73
  br label %105

105:                                              ; preds = %104
  %106 = load i32, i32* %10, align 4
  %107 = add nsw i32 %106, 1
  store i32 %107, i32* %10, align 4
  br label %69

108:                                              ; preds = %69
  %109 = call i32 @getchar()
  %110 = call i32 @getchar()
  %111 = load i8*, i8** %3, align 8
  call void @llvm.stackrestore(i8* %111)
  %112 = load i32, i32* %1, align 4
  ret i32 %112
}

declare dso_local i32 @__isoc99_scanf(i8*, ...) #1

; Function Attrs: nounwind
declare i8* @llvm.stacksave() #2

declare dso_local void @qsort(i8*, i64, i64, i32 (i8*, i8*)*) #1

declare dso_local i32 @printf(i8*, ...) #1

declare dso_local i32 @getchar() #1

; Function Attrs: nounwind
declare void @llvm.stackrestore(i8*) #2


!llvm.module.flags = !{!0}
!llvm.ident = !{!1}

!0 = !{i32 1, !"wchar_size", i32 4}
!1 = !{!"clang version 10.0.0-4ubuntu1 "}
